; Function Attrs: mustprogress nounwind uwtable
define internal void @_ZN4absl18container_internal12raw_hash_setINS0_12_GLOBAL__N_16PolicyENS2_8IdentityESt8equal_toIiENS2_12CheckedAllocINS0_7TrackedIiEELi6EEEE16transfer_slot_fnEPvSC_SC_(ptr nocapture readnone %set, ptr nocapture noundef %dst, ptr noundef nonnull %src) #7 align 2 {
entry:
  %0 = load i32, ptr %src, align 4
  store i32 %0, ptr %dst, align 8
  %num_moves_.i.i.i.i.i.i.i.i = getelementptr inbounds i8, ptr %dst, i64 8
  %num_moves_3.i.i.i.i.i.i.i.i = getelementptr inbounds i8, ptr %src, i64 8
  %1 = load ptr, ptr %num_moves_3.i.i.i.i.i.i.i.i, align 8
  store ptr %1, ptr %num_moves_.i.i.i.i.i.i.i.i, align 8
  %_M_refcount.i.i.i.i.i.i.i.i.i.i = getelementptr inbounds i8, ptr %dst, i64 16
  store ptr null, ptr %_M_refcount.i.i.i.i.i.i.i.i.i.i, align 8
  %_M_refcount4.i.i.i.i.i.i.i.i.i.i = getelementptr inbounds i8, ptr %src, i64 16
  %2 = load ptr, ptr %_M_refcount4.i.i.i.i.i.i.i.i.i.i, align 8
  store ptr null, ptr %_M_refcount4.i.i.i.i.i.i.i.i.i.i, align 8
  store ptr %2, ptr %_M_refcount.i.i.i.i.i.i.i.i.i.i, align 8
  store ptr null, ptr %num_moves_3.i.i.i.i.i.i.i.i, align 8
  %num_copies_.i.i.i.i.i.i.i.i = getelementptr inbounds i8, ptr %dst, i64 24
  %num_copies_4.i.i.i.i.i.i.i.i = getelementptr inbounds i8, ptr %src, i64 24
  %3 = load ptr, ptr %num_copies_4.i.i.i.i.i.i.i.i, align 8
  store ptr %3, ptr %num_copies_.i.i.i.i.i.i.i.i, align 8
  %_M_refcount.i.i3.i.i.i.i.i.i.i.i = getelementptr inbounds i8, ptr %dst, i64 32
  store ptr null, ptr %_M_refcount.i.i3.i.i.i.i.i.i.i.i, align 8
  %_M_refcount4.i.i4.i.i.i.i.i.i.i.i = getelementptr inbounds i8, ptr %src, i64 32
  %4 = load ptr, ptr %_M_refcount4.i.i4.i.i.i.i.i.i.i.i, align 8
  store ptr null, ptr %_M_refcount4.i.i4.i.i.i.i.i.i.i.i, align 8
  store ptr %4, ptr %_M_refcount.i.i3.i.i.i.i.i.i.i.i, align 8
  store ptr null, ptr %num_copies_4.i.i.i.i.i.i.i.i, align 8
  %5 = load ptr, ptr %num_moves_.i.i.i.i.i.i.i.i, align 8
  %6 = load i64, ptr %5, align 8
  %inc.i.i.i.i.i.i.i.i = add i64 %6, 1
  store i64 %inc.i.i.i.i.i.i.i.i, ptr %5, align 8
  tail call void @_ZN4absl18container_internal7TrackedIiED2Ev(ptr noundef nonnull align 8 dereferenceable(40) %src) #27
  ret void
}